; Function Attrs: mustprogress uwtable
define void @_ZN3nix10eval_cache10AttrCursor7getAttrENS_6SymbolEb(ptr dead_on_unwind noalias writable sret(%"class.nix::ref.154") align 8 %0, ptr noundef nonnull align 8 dereferenceable(184) %1, i32 %2, i1 noundef zeroext %3) local_unnamed_addr #4 align 2 personality ptr @__gxx_personality_v0 {
  %5 = alloca %"class.std::shared_ptr.155", align 8
  %6 = alloca %"class.std::__cxx11::basic_string", align 8
  %7 = alloca %"class.std::allocator.29", align 1
  %8 = alloca %"class.std::__cxx11::basic_string", align 8
  call void @_ZN3nix10eval_cache10AttrCursor12maybeGetAttrENS_6SymbolEb(ptr dead_on_unwind nonnull writable sret(%"class.std::shared_ptr.155") align 8 %5, ptr noundef nonnull align 8 dereferenceable(184) %1, i32 %2, i1 noundef zeroext %3)
  %9 = load ptr, ptr %5, align 8
  %.not = icmp eq ptr %9, null
  br i1 %.not, label %10, label %22

10:                                               ; preds = %4
  %11 = call ptr @__cxa_allocate_exception(i64 376) #26
  call void @_ZNSaIcEC1Ev(ptr noundef nonnull align 1 dereferenceable(1) %7) #26
  invoke void @_ZNSt7__cxx1112basic_stringIcSt11char_traitsIcESaIcEEC2IS3_EEPKcRKS3_(ptr noundef nonnull align 8 dereferenceable(32) %6, ptr noundef nonnull @.str.12, ptr noundef nonnull align 1 dereferenceable(1) %7)
          to label %12 unwind label %.thread

12:                                               ; preds = %10
  invoke void @_ZNK3nix10eval_cache10AttrCursor14getAttrPathStrB5cxx11ENS_6SymbolE(ptr dead_on_unwind nonnull writable sret(%"class.std::__cxx11::basic_string") align 8 %8, ptr noundef nonnull align 8 dereferenceable(184) %1, i32 %2)
          to label %13 unwind label %16

13:                                               ; preds = %12
  invoke void @_ZN3nix5ErrorCI2NS_9BaseErrorEIJNSt7__cxx1112basic_stringIcSt11char_traitsIcESaIcEEEEEERKS6_DpRKT_(ptr noundef nonnull align 8 dereferenceable(376) %11, ptr noundef nonnull align 8 dereferenceable(32) %6, ptr noundef nonnull align 8 dereferenceable(32) %8)
          to label %14 unwind label %18

14:                                               ; preds = %13
  invoke void @__cxa_throw(ptr nonnull %11, ptr nonnull @_ZTIN3nix5ErrorE, ptr nonnull @_ZN3nix5ErrorD2Ev) #30
          to label %77 unwind label %18

.thread:                                          ; preds = %10
  %15 = landingpad { ptr, i32 }
          cleanup
  call void @_ZNSaIcED1Ev(ptr noundef nonnull align 1 dereferenceable(1) %7) #26
  br label %21

16:                                               ; preds = %12
  %17 = landingpad { ptr, i32 }
          cleanup
  br label %20

18:                                               ; preds = %14, %13
  %.0 = phi i1 [ false, %14 ], [ true, %13 ]
  %19 = landingpad { ptr, i32 }
          cleanup
  call void @_ZNSt7__cxx1112basic_stringIcSt11char_traitsIcESaIcEED2Ev(ptr noundef nonnull align 8 dereferenceable(32) %8) #26
  br label %20

20:                                               ; preds = %16, %18
  %.pn = phi { ptr, i32 } [ %19, %18 ], [ %17, %16 ]
  %.1 = phi i1 [ %.0, %18 ], [ true, %16 ]
  call void @_ZNSt7__cxx1112basic_stringIcSt11char_traitsIcESaIcEED2Ev(ptr noundef nonnull align 8 dereferenceable(32) %6) #26
  call void @_ZNSaIcED1Ev(ptr noundef nonnull align 1 dereferenceable(1) %7) #26
  br i1 %.1, label %21, label %.body

21:                                               ; preds = %.thread, %20
  %.pn.pn20 = phi { ptr, i32 } [ %15, %.thread ], [ %.pn, %20 ]
  call void @__cxa_free_exception(ptr %11) #26
  br label %.body

22:                                               ; preds = %4
  store ptr %9, ptr %0, align 8
  %23 = getelementptr inbounds i8, ptr %0, i64 8
  %24 = getelementptr inbounds i8, ptr %5, i64 8
  %25 = load ptr, ptr %24, align 8
  store ptr %25, ptr %23, align 8
  %.not.i.i.i.i = icmp eq ptr %25, null
  br i1 %.not.i.i.i.i, label %_ZNSt10shared_ptrIN3nix10eval_cache10AttrCursorEED2Ev.exit, label %26

26:                                               ; preds = %22
  %27 = getelementptr inbounds i8, ptr %25, i64 8
  %28 = load i8, ptr @__libc_single_threaded, align 1
  %.not.i.i.i.i.i = icmp eq i8 %28, 0
  br i1 %.not.i.i.i.i.i, label %_ZNSt10shared_ptrIN3nix10eval_cache10AttrCursorEEC2ERKS3_.exit.i, label %29

29:                                               ; preds = %26
  %30 = load i32, ptr %27, align 4
  %31 = add nsw i32 %30, 1
  store i32 %31, ptr %27, align 4
  br label %_ZN3nix3refINS_10eval_cache10AttrCursorEEC2ERKSt10shared_ptrIS2_E.exit

_ZNSt10shared_ptrIN3nix10eval_cache10AttrCursorEEC2ERKS3_.exit.i: ; preds = %26
  %32 = atomicrmw volatile add ptr %27, i32 1 acq_rel, align 4
  %.pre = load ptr, ptr %5, align 8
  %33 = icmp eq ptr %.pre, null
  br i1 %33, label %34, label %_ZN3nix3refINS_10eval_cache10AttrCursorEEC2ERKSt10shared_ptrIS2_E.exit

34:                                               ; preds = %_ZNSt10shared_ptrIN3nix10eval_cache10AttrCursorEEC2ERKS3_.exit.i
  %35 = call ptr @__cxa_allocate_exception(i64 16) #26
  invoke void @_ZNSt16invalid_argumentC1EPKc(ptr noundef nonnull align 8 dereferenceable(16) %35, ptr noundef nonnull @.str.61)
          to label %36 unwind label %37

36:                                               ; preds = %34
  invoke void @__cxa_throw(ptr nonnull %35, ptr nonnull @_ZTISt16invalid_argument, ptr nonnull @_ZNSt16invalid_argumentD1Ev) #30
          to label %42 unwind label %39

37:                                               ; preds = %34
  %38 = landingpad { ptr, i32 }
          cleanup
  call void @__cxa_free_exception(ptr %35) #26
  br label %41

39:                                               ; preds = %36
  %40 = landingpad { ptr, i32 }
          cleanup
  br label %41

41:                                               ; preds = %39, %37
  %.pn.i = phi { ptr, i32 } [ %40, %39 ], [ %38, %37 ]
  call void @_ZNSt10shared_ptrIN3nix10eval_cache10AttrCursorEED2Ev(ptr noundef nonnull align 8 dereferenceable(16) %0) #26
  br label %.body

42:                                               ; preds = %36
  unreachable

_ZN3nix3refINS_10eval_cache10AttrCursorEEC2ERKSt10shared_ptrIS2_E.exit: ; preds = %29, %_ZNSt10shared_ptrIN3nix10eval_cache10AttrCursorEEC2ERKS3_.exit.i
  %.pr = load ptr, ptr %24, align 8
  %.not.i.i.i = icmp eq ptr %.pr, null
  br i1 %.not.i.i.i, label %_ZNSt10shared_ptrIN3nix10eval_cache10AttrCursorEED2Ev.exit, label %43

43:                                               ; preds = %_ZN3nix3refINS_10eval_cache10AttrCursorEEC2ERKSt10shared_ptrIS2_E.exit
  %44 = getelementptr inbounds i8, ptr %.pr, i64 8
  %45 = load atomic i64, ptr %44 acquire, align 8
  %46 = icmp eq i64 %45, 4294967297
  %47 = trunc i64 %45 to i32
  br i1 %46, label %48, label %53

48:                                               ; preds = %43
  store i32 0, ptr %44, align 8
  %49 = getelementptr inbounds i8, ptr %.pr, i64 12
  store i32 0, ptr %49, align 4
  %50 = load ptr, ptr %.pr, align 8
  %51 = getelementptr inbounds i8, ptr %50, i64 16
  %52 = load ptr, ptr %51, align 8
  call void %52(ptr noundef nonnull align 8 dereferenceable(16) %.pr) #26
  br label %_ZNSt16_Sp_counted_baseILN9__gnu_cxx12_Lock_policyE2EE24_M_release_last_use_coldEv.exit.sink.split.i.i.i.i

53:                                               ; preds = %43
  %54 = load i8, ptr @__libc_single_threaded, align 1
  %.not.i.i.i.i17 = icmp eq i8 %54, 0
  br i1 %.not.i.i.i.i17, label %57, label %55

55:                                               ; preds = %53
  %56 = add nsw i32 %47, -1
  store i32 %56, ptr %44, align 4
  br label %59

57:                                               ; preds = %53
  %58 = atomicrmw volatile add ptr %44, i32 -1 acq_rel, align 4
  br label %59

59:                                               ; preds = %57, %55
  %.0.i.i.i.i = phi i32 [ %47, %55 ], [ %58, %57 ]
  %60 = icmp eq i32 %.0.i.i.i.i, 1
  br i1 %60, label %61, label %_ZNSt10shared_ptrIN3nix10eval_cache10AttrCursorEED2Ev.exit

61:                                               ; preds = %59
  %62 = load ptr, ptr %.pr, align 8
  %63 = getelementptr inbounds i8, ptr %62, i64 16
  %64 = load ptr, ptr %63, align 8
  call void %64(ptr noundef nonnull align 8 dereferenceable(16) %.pr) #26
  %65 = getelementptr inbounds i8, ptr %.pr, i64 12
  %66 = load i8, ptr @__libc_single_threaded, align 1
  %.not.i.i.i.i.i.i = icmp eq i8 %66, 0
  br i1 %.not.i.i.i.i.i.i, label %70, label %67

67:                                               ; preds = %61
  %68 = load i32, ptr %65, align 4
  %69 = add nsw i32 %68, -1
  store i32 %69, ptr %65, align 4
  br label %72

70:                                               ; preds = %61
  %71 = atomicrmw volatile add ptr %65, i32 -1 acq_rel, align 4
  br label %72

72:                                               ; preds = %70, %67
  %.0.i.i.i.i.i.i = phi i32 [ %68, %67 ], [ %71, %70 ]
  %73 = icmp eq i32 %.0.i.i.i.i.i.i, 1
  br i1 %73, label %_ZNSt16_Sp_counted_baseILN9__gnu_cxx12_Lock_policyE2EE24_M_release_last_use_coldEv.exit.sink.split.i.i.i.i, label %_ZNSt10shared_ptrIN3nix10eval_cache10AttrCursorEED2Ev.exit

_ZNSt16_Sp_counted_baseILN9__gnu_cxx12_Lock_policyE2EE24_M_release_last_use_coldEv.exit.sink.split.i.i.i.i: ; preds = %72, %48
  %74 = load ptr, ptr %.pr, align 8
  %75 = getelementptr inbounds i8, ptr %74, i64 24
  %76 = load ptr, ptr %75, align 8
  call void %76(ptr noundef nonnull align 8 dereferenceable(16) %.pr) #26
  br label %_ZNSt10shared_ptrIN3nix10eval_cache10AttrCursorEED2Ev.exit

_ZNSt10shared_ptrIN3nix10eval_cache10AttrCursorEED2Ev.exit: ; preds = %22, %_ZN3nix3refINS_10eval_cache10AttrCursorEEC2ERKSt10shared_ptrIS2_E.exit, %59, %72, %_ZNSt16_Sp_counted_baseILN9__gnu_cxx12_Lock_policyE2EE24_M_release_last_use_coldEv.exit.sink.split.i.i.i.i
  ret void

.body:                                            ; preds = %41, %20, %21
  %.pn15 = phi { ptr, i32 } [ %.pn.pn20, %21 ], [ %.pn, %20 ], [ %.pn.i, %41 ]
  call void @_ZNSt10shared_ptrIN3nix10eval_cache10AttrCursorEED2Ev(ptr noundef nonnull align 8 dereferenceable(16) %5) #26
  resume { ptr, i32 } %.pn15

77:                                               ; preds = %14
  unreachable
}